; ModuleID = '9/982.c'
source_filename = "9/982.c"
target datalayout = "e-m:e-p270:32:32-p271:32:32-p272:64:64-i64:64-f80:128-n8:16:32:64-S128"
target triple = "x86_64-pc-linux-gnu"

%struct.Patient = type { i32, [10 x i8], i32 }

@.str = private unnamed_addr constant [3 x i8] c"%d\00", align 1
@.str.1 = private unnamed_addr constant [6 x i8] c"%s %d\00", align 1
@.str.2 = private unnamed_addr constant [4 x i8] c"%s\0A\00", align 1

; Function Attrs: noinline nounwind uwtable
define dso_local i32 @main() #0 {
  %1 = alloca i32, align 4
  %2 = alloca [100 x %struct.Patient], align 16
  %3 = alloca [100 x %struct.Patient], align 16
  %4 = alloca %struct.Patient, align 4
  %5 = alloca i32, align 4
  %6 = alloca i32, align 4
  %7 = alloca i32, align 4
  %8 = alloca i32, align 4
  %9 = alloca i32, align 4
  store i32 0, i32* %1, align 4
  store i32 0, i32* %7, align 4
  %10 = call i32 (i8*, ...) @__isoc99_scanf(i8* getelementptr inbounds ([3 x i8], [3 x i8]* @.str, i64 0, i64 0), i32* %5)
  store i32 0, i32* %6, align 4
  br label %11

11:                                               ; preds = %51, %0
  %12 = load i32, i32* %6, align 4
  %13 = load i32, i32* %5, align 4
  %14 = icmp slt i32 %12, %13
  br i1 %14, label %15, label %54

15:                                               ; preds = %11
  %16 = load i32, i32* %6, align 4
  %17 = sext i32 %16 to i64
  %18 = getelementptr inbounds [100 x %struct.Patient], [100 x %struct.Patient]* %2, i64 0, i64 %17
  %19 = getelementptr inbounds %struct.Patient, %struct.Patient* %18, i32 0, i32 1
  %20 = load i32, i32* %6, align 4
  %21 = sext i32 %20 to i64
  %22 = getelementptr inbounds [100 x %struct.Patient], [100 x %struct.Patient]* %2, i64 0, i64 %21
  %23 = getelementptr inbounds %struct.Patient, %struct.Patient* %22, i32 0, i32 2
  %24 = call i32 (i8*, ...) @__isoc99_scanf(i8* getelementptr inbounds ([6 x i8], [6 x i8]* @.str.1, i64 0, i64 0), [10 x i8]* %19, i32* %23)
  %25 = load i32, i32* %6, align 4
  %26 = sext i32 %25 to i64
  %27 = getelementptr inbounds [100 x %struct.Patient], [100 x %struct.Patient]* %2, i64 0, i64 %26
  %28 = getelementptr inbounds %struct.Patient, %struct.Patient* %27, i32 0, i32 0
  store i32 0, i32* %28, align 4
  %29 = load i32, i32* %6, align 4
  %30 = sext i32 %29 to i64
  %31 = getelementptr inbounds [100 x %struct.Patient], [100 x %struct.Patient]* %2, i64 0, i64 %30
  %32 = getelementptr inbounds %struct.Patient, %struct.Patient* %31, i32 0, i32 2
  %33 = load i32, i32* %32, align 4
  %34 = icmp sge i32 %33, 60
  br i1 %34, label %35, label %42

35:                                               ; preds = %15
  %36 = load i32, i32* %7, align 4
  %37 = add nsw i32 %36, 1
  store i32 %37, i32* %7, align 4
  %38 = load i32, i32* %6, align 4
  %39 = sext i32 %38 to i64
  %40 = getelementptr inbounds [100 x %struct.Patient], [100 x %struct.Patient]* %2, i64 0, i64 %39
  %41 = getelementptr inbounds %struct.Patient, %struct.Patient* %40, i32 0, i32 0
  store i32 1, i32* %41, align 4
  br label %42

42:                                               ; preds = %35, %15
  %43 = load i32, i32* %6, align 4
  %44 = sext i32 %43 to i64
  %45 = getelementptr inbounds [100 x %struct.Patient], [100 x %struct.Patient]* %3, i64 0, i64 %44
  %46 = load i32, i32* %6, align 4
  %47 = sext i32 %46 to i64
  %48 = getelementptr inbounds [100 x %struct.Patient], [100 x %struct.Patient]* %2, i64 0, i64 %47
  %49 = bitcast %struct.Patient* %45 to i8*
  %50 = bitcast %struct.Patient* %48 to i8*
  call void @llvm.memcpy.p0i8.p0i8.i64(i8* align 4 %49, i8* align 4 %50, i64 20, i1 false)
  br label %51

51:                                               ; preds = %42
  %52 = load i32, i32* %6, align 4
  %53 = add nsw i32 %52, 1
  store i32 %53, i32* %6, align 4
  br label %11

54:                                               ; preds = %11
  store i32 0, i32* %6, align 4
  br label %55

55:                                               ; preds = %107, %54
  %56 = load i32, i32* %6, align 4
  %57 = load i32, i32* %5, align 4
  %58 = sub nsw i32 %57, 1
  %59 = icmp slt i32 %56, %58
  br i1 %59, label %60, label %110

60:                                               ; preds = %55
  store i32 0, i32* %9, align 4
  br label %61

61:                                               ; preds = %103, %60
  %62 = load i32, i32* %9, align 4
  %63 = load i32, i32* %5, align 4
  %64 = sub nsw i32 %63, 1
  %65 = load i32, i32* %6, align 4
  %66 = sub nsw i32 %64, %65
  %67 = icmp slt i32 %62, %66
  br i1 %67, label %68, label %106

68:                                               ; preds = %61
  %69 = load i32, i32* %9, align 4
  %70 = sext i32 %69 to i64
  %71 = getelementptr inbounds [100 x %struct.Patient], [100 x %struct.Patient]* %2, i64 0, i64 %70
  %72 = getelementptr inbounds %struct.Patient, %struct.Patient* %71, i32 0, i32 2
  %73 = load i32, i32* %72, align 4
  %74 = load i32, i32* %9, align 4
  %75 = add nsw i32 %74, 1
  %76 = sext i32 %75 to i64
  %77 = getelementptr inbounds [100 x %struct.Patient], [100 x %struct.Patient]* %2, i64 0, i64 %76
  %78 = getelementptr inbounds %struct.Patient, %struct.Patient* %77, i32 0, i32 2
  %79 = load i32, i32* %78, align 4
  %80 = icmp slt i32 %73, %79
  br i1 %80, label %81, label %102

81:                                               ; preds = %68
  %82 = load i32, i32* %9, align 4
  %83 = sext i32 %82 to i64
  %84 = getelementptr inbounds [100 x %struct.Patient], [100 x %struct.Patient]* %2, i64 0, i64 %83
  %85 = bitcast %struct.Patient* %4 to i8*
  %86 = bitcast %struct.Patient* %84 to i8*
  call void @llvm.memcpy.p0i8.p0i8.i64(i8* align 4 %85, i8* align 4 %86, i64 20, i1 false)
  %87 = load i32, i32* %9, align 4
  %88 = sext i32 %87 to i64
  %89 = getelementptr inbounds [100 x %struct.Patient], [100 x %struct.Patient]* %2, i64 0, i64 %88
  %90 = load i32, i32* %9, align 4
  %91 = add nsw i32 %90, 1
  %92 = sext i32 %91 to i64
  %93 = getelementptr inbounds [100 x %struct.Patient], [100 x %struct.Patient]* %2, i64 0, i64 %92
  %94 = bitcast %struct.Patient* %89 to i8*
  %95 = bitcast %struct.Patient* %93 to i8*
  call void @llvm.memcpy.p0i8.p0i8.i64(i8* align 4 %94, i8* align 4 %95, i64 20, i1 false)
  %96 = load i32, i32* %9, align 4
  %97 = add nsw i32 %96, 1
  %98 = sext i32 %97 to i64
  %99 = getelementptr inbounds [100 x %struct.Patient], [100 x %struct.Patient]* %2, i64 0, i64 %98
  %100 = bitcast %struct.Patient* %99 to i8*
  %101 = bitcast %struct.Patient* %4 to i8*
  call void @llvm.memcpy.p0i8.p0i8.i64(i8* align 4 %100, i8* align 4 %101, i64 20, i1 false)
  br label %102

102:                                              ; preds = %81, %68
  br label %103

103:                                              ; preds = %102
  %104 = load i32, i32* %9, align 4
  %105 = add nsw i32 %104, 1
  store i32 %105, i32* %9, align 4
  br label %61

106:                                              ; preds = %61
  br label %107

107:                                              ; preds = %106
  %108 = load i32, i32* %6, align 4
  %109 = add nsw i32 %108, 1
  store i32 %109, i32* %6, align 4
  br label %55

110:                                              ; preds = %55
  store i32 0, i32* %6, align 4
  br label %111

111:                                              ; preds = %122, %110
  %112 = load i32, i32* %6, align 4
  %113 = load i32, i32* %7, align 4
  %114 = icmp slt i32 %112, %113
  br i1 %114, label %115, label %125

115:                                              ; preds = %111
  %116 = load i32, i32* %6, align 4
  %117 = sext i32 %116 to i64
  %118 = getelementptr inbounds [100 x %struct.Patient], [100 x %struct.Patient]* %2, i64 0, i64 %117
  %119 = getelementptr inbounds %struct.Patient, %struct.Patient* %118, i32 0, i32 1
  %120 = getelementptr inbounds [10 x i8], [10 x i8]* %119, i64 0, i64 0
  %121 = call i32 (i8*, ...) @printf(i8* getelementptr inbounds ([4 x i8], [4 x i8]* @.str.2, i64 0, i64 0), i8* %120)
  br label %122

122:                                              ; preds = %115
  %123 = load i32, i32* %6, align 4
  %124 = add nsw i32 %123, 1
  store i32 %124, i32* %6, align 4
  br label %111

125:                                              ; preds = %111
  store i32 0, i32* %6, align 4
  br label %126

126:                                              ; preds = %145, %125
  %127 = load i32, i32* %6, align 4
  %128 = load i32, i32* %5, align 4
  %129 = icmp slt i32 %127, %128
  br i1 %129, label %130, label %148

130:                                              ; preds = %126
  %131 = load i32, i32* %6, align 4
  %132 = sext i32 %131 to i64
  %133 = getelementptr inbounds [100 x %struct.Patient], [100 x %struct.Patient]* %3, i64 0, i64 %132
  %134 = getelementptr inbounds %struct.Patient, %struct.Patient* %133, i32 0, i32 0
  %135 = load i32, i32* %134, align 4
  %136 = icmp eq i32 %135, 0
  br i1 %136, label %137, label %144

137:                                              ; preds = %130
  %138 = load i32, i32* %6, align 4
  %139 = sext i32 %138 to i64
  %140 = getelementptr inbounds [100 x %struct.Patient], [100 x %struct.Patient]* %3, i64 0, i64 %139
  %141 = getelementptr inbounds %struct.Patient, %struct.Patient* %140, i32 0, i32 1
  %142 = getelementptr inbounds [10 x i8], [10 x i8]* %141, i64 0, i64 0
  %143 = call i32 (i8*, ...) @printf(i8* getelementptr inbounds ([4 x i8], [4 x i8]* @.str.2, i64 0, i64 0), i8* %142)
  br label %144

144:                                              ; preds = %137, %130
  br label %145

145:                                              ; preds = %144
  %146 = load i32, i32* %6, align 4
  %147 = add nsw i32 %146, 1
  store i32 %147, i32* %6, align 4
  br label %126

148:                                              ; preds = %126
  ret i32 0
}

declare dso_local i32 @__isoc99_scanf(i8*, ...) #1

; Function Attrs: argmemonly nounwind willreturn
declare void @llvm.memcpy.p0i8.p0i8.i64(i8* noalias nocapture writeonly, i8* noalias nocapture readonly, i64, i1 immarg) #2

declare dso_local i32 @printf(i8*, ...) #1


!llvm.module.flags = !{!0}
!llvm.ident = !{!1}

!0 = !{i32 1, !"wchar_size", i32 4}
!1 = !{!"clang version 10.0.0-4ubuntu1 "}
